; ModuleID = 'source-C-CXX/2/3022.c'
source_filename = "source-C-CXX/2/3022.c"
target datalayout = "e-m:e-p270:32:32-p271:32:32-p272:64:64-i64:64-f80:128-n8:16:32:64-S128"
target triple = "x86_64-pc-linux-gnu"

@.str = private unnamed_addr constant [5 x i8] c"%d%d\00", align 1
@.str.1 = private unnamed_addr constant [3 x i8] c"%d\00", align 1
@.str.2 = private unnamed_addr constant [4 x i8] c"yes\00", align 1
@.str.3 = private unnamed_addr constant [3 x i8] c"no\00", align 1

; Function Attrs: nofree nounwind sspstrong uwtable
define dso_local i32 @main() local_unnamed_addr #0 {
  %1 = alloca i32, align 4
  %2 = alloca i32, align 4
  %3 = alloca [100 x i32], align 16
  %4 = bitcast i32* %1 to i8*
  call void @llvm.lifetime.start.p0i8(i64 4, i8* nonnull %4) #3
  %5 = bitcast i32* %2 to i8*
  call void @llvm.lifetime.start.p0i8(i64 4, i8* nonnull %5) #3
  %6 = bitcast [100 x i32]* %3 to i8*
  call void @llvm.lifetime.start.p0i8(i64 400, i8* nonnull %6) #3
  %7 = call i32 (i8*, ...) @__isoc99_scanf(i8* getelementptr inbounds ([5 x i8], [5 x i8]* @.str, i64 0, i64 0), i32* nonnull %1, i32* nonnull %2)
  %8 = load i32, i32* %1, align 4, !tbaa !5
  %9 = icmp sgt i32 %8, 0
  br i1 %9, label %18, label %46

10:                                               ; preds = %18
  %11 = load i32, i32* %2, align 4
  %12 = icmp sgt i32 %23, 1
  br i1 %12, label %13, label %46

13:                                               ; preds = %10
  %14 = zext i32 %23 to i64
  %15 = add nsw i32 %23, -1
  %16 = zext i32 %15 to i64
  %17 = zext i32 %23 to i64
  br label %29

18:                                               ; preds = %0, %18
  %19 = phi i64 [ %22, %18 ], [ 0, %0 ]
  %20 = getelementptr inbounds [100 x i32], [100 x i32]* %3, i64 0, i64 %19
  %21 = call i32 (i8*, ...) @__isoc99_scanf(i8* getelementptr inbounds ([3 x i8], [3 x i8]* @.str.1, i64 0, i64 0), i32* nonnull %20)
  %22 = add nuw nsw i64 %19, 1
  %23 = load i32, i32* %1, align 4, !tbaa !5
  %24 = sext i32 %23 to i64
  %25 = icmp slt i64 %22, %24
  br i1 %25, label %18, label %10, !llvm.loop !9

26:                                               ; preds = %37, %29
  %27 = add nuw nsw i64 %31, 1
  %28 = icmp eq i64 %32, %16
  br i1 %28, label %46, label %29, !llvm.loop !11

29:                                               ; preds = %13, %26
  %30 = phi i64 [ 0, %13 ], [ %32, %26 ]
  %31 = phi i64 [ 1, %13 ], [ %27, %26 ]
  %32 = add nuw nsw i64 %30, 1
  %33 = icmp ult i64 %32, %14
  br i1 %33, label %34, label %26

34:                                               ; preds = %29
  %35 = getelementptr inbounds [100 x i32], [100 x i32]* %3, i64 0, i64 %30
  %36 = load i32, i32* %35, align 4, !tbaa !5
  br label %39

37:                                               ; preds = %39
  %38 = icmp eq i64 %45, %17
  br i1 %38, label %26, label %39, !llvm.loop !12

39:                                               ; preds = %34, %37
  %40 = phi i64 [ %31, %34 ], [ %45, %37 ]
  %41 = getelementptr inbounds [100 x i32], [100 x i32]* %3, i64 0, i64 %40
  %42 = load i32, i32* %41, align 4, !tbaa !5
  %43 = add nsw i32 %42, %36
  %44 = icmp eq i32 %43, %11
  %45 = add nuw nsw i64 %40, 1
  br i1 %44, label %46, label %37

46:                                               ; preds = %26, %39, %10, %0
  %47 = phi i8* [ getelementptr inbounds ([3 x i8], [3 x i8]* @.str.3, i64 0, i64 0), %0 ], [ getelementptr inbounds ([3 x i8], [3 x i8]* @.str.3, i64 0, i64 0), %10 ], [ getelementptr inbounds ([4 x i8], [4 x i8]* @.str.2, i64 0, i64 0), %39 ], [ getelementptr inbounds ([3 x i8], [3 x i8]* @.str.3, i64 0, i64 0), %26 ]
  %48 = call i32 (i8*, ...) @printf(i8* nonnull dereferenceable(1) %47)
  call void @llvm.lifetime.end.p0i8(i64 400, i8* nonnull %6) #3
  call void @llvm.lifetime.end.p0i8(i64 4, i8* nonnull %5) #3
  call void @llvm.lifetime.end.p0i8(i64 4, i8* nonnull %4) #3
  ret i32 0
}

; Function Attrs: argmemonly mustprogress nofree nosync nounwind willreturn
declare void @llvm.lifetime.start.p0i8(i64 immarg, i8* nocapture) #1

; Function Attrs: nofree nounwind
declare noundef i32 @__isoc99_scanf(i8* nocapture noundef readonly, ...) local_unnamed_addr #2

; Function Attrs: argmemonly mustprogress nofree nosync nounwind willreturn
declare void @llvm.lifetime.end.p0i8(i64 immarg, i8* nocapture) #1

; Function Attrs: nofree nounwind
declare noundef i32 @printf(i8* nocapture noundef readonly, ...) local_unnamed_addr #2


!llvm.module.flags = !{!0, !1, !2, !3}
!llvm.ident = !{!4}

!0 = !{i32 1, !"wchar_size", i32 4}
!1 = !{i32 7, !"PIC Level", i32 2}
!2 = !{i32 7, !"PIE Level", i32 2}
!3 = !{i32 7, !"uwtable", i32 1}
!4 = !{!"clang version 13.0.0"}
!5 = !{!6, !6, i64 0}
!6 = !{!"int", !7, i64 0}
!7 = !{!"omnipotent char", !8, i64 0}
!8 = !{!"Simple C/C++ TBAA"}
!9 = distinct !{!9, !10}
!10 = !{!"llvm.loop.mustprogress"}
!11 = distinct !{!11, !10}
!12 = distinct !{!12, !10}
